; Function Attrs: mustprogress uwtable
define void @_ZNK4base15SparseHistogram16WriteAsciiHeaderEiPNSt7__cxx1112basic_stringIcSt11char_traitsIcESaIcEEE(ptr noundef nonnull align 8 dereferenceable(112) %0, i32 noundef %1, ptr noundef %2) local_unnamed_addr #0 align 2 personality ptr @__gxx_personality_v0 {
  %4 = getelementptr inbounds nuw i8, ptr %0, i64 8
  %5 = load ptr, ptr %4, align 8, !tbaa !3
  tail call void (ptr, ptr, ...) @_ZN4base13StringAppendFEPNSt7__cxx1112basic_stringIcSt11char_traitsIcESaIcEEEPKcz(ptr noundef %2, ptr noundef nonnull @.str.5, ptr noundef %5, i32 noundef %1)
  %6 = getelementptr inbounds nuw i8, ptr %0, i64 40
  %7 = load atomic volatile i32, ptr %6 monotonic, align 8
  %8 = and i32 %7, -32769
  %.not = icmp eq i32 %8, 0
  br i1 %.not, label %12, label %9

9:                                                ; preds = %3
  %10 = load atomic volatile i32, ptr %6 monotonic, align 8
  %11 = and i32 %10, -32769
  tail call void (ptr, ptr, ...) @_ZN4base13StringAppendFEPNSt7__cxx1112basic_stringIcSt11char_traitsIcESaIcEEEPKcz(ptr noundef %2, ptr noundef nonnull @.str.6, i32 noundef %11)
  br label %12

12:                                               ; preds = %9, %3
  ret void
}